target datalayout = "e-m:e-p270:32:32-p271:32:32-p272:64:64-i64:64-i128:128-f80:128-n8:16:32:64-S128"
target triple = "x86_64-pc-linux-gnu"

; Function Attrs: mustprogress nounwind uwtable
define linkonce_odr hidden noundef ptr @_ZNK4LIEF6Object2asINS_5MachO11LoadCommandEEENSt11add_pointerINSt9add_constINSt5decayIT_E4typeEE4typeEE4typeEv(ptr noundef nonnull align 8 dereferenceable(8) %0) #0 comdat align 2 {
  %2 = alloca ptr, align 8
  store ptr %0, ptr %2, align 8
  %3 = load ptr, ptr %2, align 8
  ret ptr %3
}

; Function Attrs: mustprogress uwtable
define void @_ZN4LIEF5MachO4Hash5visitERKNS0_12RPathCommandE(ptr noundef nonnull align 8 dereferenceable(64) %0, ptr noundef nonnull align 8 dereferenceable(88) %1) unnamed_addr #3 align 2 {
  %3 = alloca ptr, align 8
  %4 = alloca ptr, align 8
  store ptr %0, ptr %3, align 8
  store ptr %1, ptr %4, align 8
  %5 = load ptr, ptr %3, align 8
  %6 = load ptr, ptr %4, align 8
  %7 = call noundef ptr @_ZNK4LIEF6Object2asINS_5MachO11LoadCommandEEENSt11add_pointerINSt9add_constINSt5decayIT_E4typeEE4typeEE4typeEv(ptr noundef nonnull align 8 dereferenceable(8) %6)
  %8 = load ptr, ptr %5, align 8
  %9 = getelementptr inbounds ptr, ptr %8, i64 109
  %10 = load ptr, ptr %9, align 8
  call void %10(ptr noundef nonnull align 8 dereferenceable(64) %5, ptr noundef nonnull align 8 dereferenceable(56) %7)
  %11 = load ptr, ptr %4, align 8
  %12 = call noundef nonnull align 8 dereferenceable(32) ptr @_ZNK4LIEF5MachO12RPathCommand4pathB5cxx11Ev(ptr noundef nonnull align 8 dereferenceable(88) %11)
  %13 = load ptr, ptr %5, align 8
  %14 = getelementptr inbounds ptr, ptr %13, i64 167
  %15 = load ptr, ptr %14, align 8
  %16 = call noundef nonnull align 8 dereferenceable(64) ptr %15(ptr noundef nonnull align 8 dereferenceable(64) %5, ptr noundef nonnull align 8 dereferenceable(32) %12)
  ret void
}